target datalayout = "e-m:e-p270:32:32-p271:32:32-p272:64:64-i64:64-i128:128-f80:128-n8:16:32:64-S128"
target triple = "x86_64-unknown-linux-gnu"

%"class.sat::literal" = type { i32 }
%"class.sat::npn3_finder" = type { ptr, %"class.sat::big", %"class.std::function", %"class.std::function", %"class.std::function", %"class.std::function", %"class.std::function", %"class.std::function", %"class.std::function", %"class.std::function", %"class.std::function", %"class.std::function", %class.scoped_ptr_vector }
%"class.sat::big" = type { ptr, i32, %class.vector, %class.svector, %class.svector.1, %class.svector.1, %class.svector.3, %class.svector.3, i8, i8, %class.vector }
%class.svector = type { %class.vector.0 }
%class.vector.0 = type { ptr }
%class.svector.1 = type { %class.vector.2 }
%class.vector.2 = type { ptr }
%class.svector.3 = type { %class.vector.4 }
%class.vector.4 = type { ptr }
%class.vector = type { ptr }
%"class.std::function" = type { %"class.std::_Function_base", ptr }
%"class.std::_Function_base" = type { %"union.std::_Any_data", ptr }
%"union.std::_Any_data" = type { %"union.std::_Nocopy_types" }
%"union.std::_Nocopy_types" = type { { i64, i64 } }
%class.scoped_ptr_vector = type { %class.ptr_vector }
%class.ptr_vector = type { %class.vector.5 }
%class.vector.5 = type { ptr }
%class.approx_set_tpl = type { i32 }
%class.anon.78 = type { ptr, ptr }
%"class.sat::clause" = type { i32, i32, i32, %class.approx_set_tpl, i32, [0 x %"class.sat::literal"] }

; Function Attrs: mustprogress nounwind uwtable
define linkonce_odr hidden noundef zeroext i1 @_ZNKSt14_Function_base8_M_emptyEv(ptr noundef nonnull align 8 dereferenceable(24) %this) #4 comdat align 2 {
entry:
  %this.addr = alloca ptr, align 8
  store ptr %this, ptr %this.addr, align 8
  %this1 = load ptr, ptr %this.addr, align 8
  %_M_manager = getelementptr inbounds %"class.std::_Function_base", ptr %this1, i32 0, i32 1
  %0 = load ptr, ptr %_M_manager, align 8
  %tobool = icmp ne ptr %0, null
  %lnot = xor i1 %tobool, true
  ret i1 %lnot
}

; Function Attrs: mustprogress uwtable
define linkonce_odr hidden void @_ZNKSt8functionIFvN3sat7literalES1_S1_S1_EEclES1_S1_S1_S1_(ptr noundef nonnull align 8 dereferenceable(32) %this, i32 %__args.coerce, i32 %__args.coerce2, i32 %__args.coerce5, i32 %__args.coerce8) #5 comdat align 2 {
entry:
  %__args = alloca %"class.sat::literal", align 4
  %__args10 = alloca %"class.sat::literal", align 4
  %__args11 = alloca %"class.sat::literal", align 4
  %__args12 = alloca %"class.sat::literal", align 4
  %this.addr = alloca ptr, align 8
  %coerce.dive = getelementptr inbounds %"class.sat::literal", ptr %__args, i32 0, i32 0
  store i32 %__args.coerce, ptr %coerce.dive, align 4
  %coerce.dive3 = getelementptr inbounds %"class.sat::literal", ptr %__args10, i32 0, i32 0
  store i32 %__args.coerce2, ptr %coerce.dive3, align 4
  %coerce.dive6 = getelementptr inbounds %"class.sat::literal", ptr %__args11, i32 0, i32 0
  store i32 %__args.coerce5, ptr %coerce.dive6, align 4
  %coerce.dive9 = getelementptr inbounds %"class.sat::literal", ptr %__args12, i32 0, i32 0
  store i32 %__args.coerce8, ptr %coerce.dive9, align 4
  store ptr %this, ptr %this.addr, align 8
  %this13 = load ptr, ptr %this.addr, align 8
  %call = call noundef zeroext i1 @_ZNKSt14_Function_base8_M_emptyEv(ptr noundef nonnull align 8 dereferenceable(24) %this13)
  br i1 %call, label %if.then, label %if.end

if.then:                                          ; preds = %entry
  call void @_ZSt25__throw_bad_function_callv() #13
  unreachable

if.end:                                           ; preds = %entry
  %_M_invoker = getelementptr inbounds %"class.std::function", ptr %this13, i32 0, i32 1
  %0 = load ptr, ptr %_M_invoker, align 8
  %_M_functor = getelementptr inbounds %"class.std::_Function_base", ptr %this13, i32 0, i32 0
  call void %0(ptr noundef nonnull align 8 dereferenceable(16) %_M_functor, ptr noundef nonnull align 4 dereferenceable(4) %__args, ptr noundef nonnull align 4 dereferenceable(4) %__args10, ptr noundef nonnull align 4 dereferenceable(4) %__args11, ptr noundef nonnull align 4 dereferenceable(4) %__args12)
  ret void
}

; Function Attrs: mustprogress nounwind uwtable
define linkonce_odr hidden void @_ZN3sat6clause9mark_usedEv(ptr noundef nonnull align 4 dereferenceable(20) %this) #4 comdat align 2 {
entry:
  %this.addr = alloca ptr, align 8
  store ptr %this, ptr %this.addr, align 8
  %this1 = load ptr, ptr %this.addr, align 8
  %m_used = getelementptr inbounds %"class.sat::clause", ptr %this1, i32 0, i32 4
  %bf.load = load i32, ptr %m_used, align 4
  %bf.clear = and i32 %bf.load, -9
  %bf.set = or i32 %bf.clear, 8
  store i32 %bf.set, ptr %m_used, align 4
  ret void
}

; Function Attrs: mustprogress nounwind uwtable
define linkonce_odr hidden i32 @_ZN3satcoENS_7literalE(i32 %l.coerce) #4 comdat {
entry:
  %retval = alloca %"class.sat::literal", align 4
  %l = alloca %"class.sat::literal", align 4
  %coerce.dive = getelementptr inbounds %"class.sat::literal", ptr %l, i32 0, i32 0
  store i32 %l.coerce, ptr %coerce.dive, align 4
  %m_val = getelementptr inbounds %"class.sat::literal", ptr %l, i32 0, i32 0
  %0 = load i32, ptr %m_val, align 4
  %xor = xor i32 %0, 1
  %m_val1 = getelementptr inbounds %"class.sat::literal", ptr %l, i32 0, i32 0
  store i32 %xor, ptr %m_val1, align 4
  call void @llvm.memcpy.p0.p0.i64(ptr align 4 %retval, ptr align 4 %l, i64 4, i1 false)
  %coerce.dive2 = getelementptr inbounds %"class.sat::literal", ptr %retval, i32 0, i32 0
  %1 = load i32, ptr %coerce.dive2, align 4
  ret i32 %1
}

; Function Attrs: mustprogress uwtable
define internal noundef zeroext i1 @"_ZZN3sat11npn3_finder8find_dotER10ptr_vectorINS_6clauseEEENK3$_0clENS_7literalES6_S6_S6_RS2_"(ptr noundef nonnull align 8 dereferenceable(16) %this, i32 %w.coerce, i32 %x.coerce, i32 %y.coerce, i32 %z.coerce, ptr noundef nonnull align 4 dereferenceable(20) %c) #5 align 2 {
entry:
  %retval = alloca i1, align 1
  %w = alloca %"class.sat::literal", align 4
  %x = alloca %"class.sat::literal", align 4
  %y = alloca %"class.sat::literal", align 4
  %z = alloca %"class.sat::literal", align 4
  %this.addr = alloca ptr, align 8
  %c.addr = alloca ptr, align 8
  %c1 = alloca ptr, align 8
  %c2 = alloca ptr, align 8
  %c3 = alloca ptr, align 8
  %c4 = alloca ptr, align 8
  %agg.tmp = alloca %"class.sat::literal", align 4
  %agg.tmp5 = alloca %"class.sat::literal", align 4
  %agg.tmp8 = alloca %"class.sat::literal", align 4
  %agg.tmp9 = alloca %"class.sat::literal", align 4
  %agg.tmp10 = alloca %"class.sat::literal", align 4
  %agg.tmp18 = alloca %"class.sat::literal", align 4
  %agg.tmp19 = alloca %"class.sat::literal", align 4
  %agg.tmp20 = alloca %"class.sat::literal", align 4
  %agg.tmp24 = alloca %"class.sat::literal", align 4
  %agg.tmp25 = alloca %"class.sat::literal", align 4
  %agg.tmp35 = alloca %"class.sat::literal", align 4
  %agg.tmp36 = alloca %"class.sat::literal", align 4
  %agg.tmp37 = alloca %"class.sat::literal", align 4
  %agg.tmp41 = alloca %"class.sat::literal", align 4
  %agg.tmp42 = alloca %"class.sat::literal", align 4
  %agg.tmp52 = alloca %"class.sat::literal", align 4
  %agg.tmp53 = alloca %"class.sat::literal", align 4
  %agg.tmp57 = alloca %"class.sat::literal", align 4
  %agg.tmp58 = alloca %"class.sat::literal", align 4
  %agg.tmp62 = alloca %"class.sat::literal", align 4
  %agg.tmp80 = alloca %"class.sat::literal", align 4
  %agg.tmp81 = alloca %"class.sat::literal", align 4
  %agg.tmp82 = alloca %"class.sat::literal", align 4
  %agg.tmp86 = alloca %"class.sat::literal", align 4
  %agg.tmp87 = alloca %"class.sat::literal", align 4
  %coerce.dive = getelementptr inbounds %"class.sat::literal", ptr %w, i32 0, i32 0
  store i32 %w.coerce, ptr %coerce.dive, align 4
  %coerce.dive1 = getelementptr inbounds %"class.sat::literal", ptr %x, i32 0, i32 0
  store i32 %x.coerce, ptr %coerce.dive1, align 4
  %coerce.dive2 = getelementptr inbounds %"class.sat::literal", ptr %y, i32 0, i32 0
  store i32 %y.coerce, ptr %coerce.dive2, align 4
  %coerce.dive3 = getelementptr inbounds %"class.sat::literal", ptr %z, i32 0, i32 0
  store i32 %z.coerce, ptr %coerce.dive3, align 4
  store ptr %this, ptr %this.addr, align 8
  store ptr %c, ptr %c.addr, align 8
  %this4 = load ptr, ptr %this.addr, align 8
  %0 = getelementptr inbounds %class.anon.78, ptr %this4, i32 0, i32 0
  %1 = load ptr, ptr %0, align 8
  %2 = getelementptr inbounds %class.anon.78, ptr %this4, i32 0, i32 1
  %3 = load ptr, ptr %2, align 8
  call void @llvm.memcpy.p0.p0.i64(ptr align 4 %agg.tmp5, ptr align 4 %x, i64 4, i1 false)
  %coerce.dive6 = getelementptr inbounds %"class.sat::literal", ptr %agg.tmp5, i32 0, i32 0
  %4 = load i32, ptr %coerce.dive6, align 4
  %call = call i32 @_ZN3satcoENS_7literalE(i32 %4)
  %coerce.dive7 = getelementptr inbounds %"class.sat::literal", ptr %agg.tmp, i32 0, i32 0
  store i32 %call, ptr %coerce.dive7, align 4
  call void @llvm.memcpy.p0.p0.i64(ptr align 4 %agg.tmp8, ptr align 4 %z, i64 4, i1 false)
  call void @llvm.memcpy.p0.p0.i64(ptr align 4 %agg.tmp10, ptr align 4 %w, i64 4, i1 false)
  %coerce.dive11 = getelementptr inbounds %"class.sat::literal", ptr %agg.tmp10, i32 0, i32 0
  %5 = load i32, ptr %coerce.dive11, align 4
  %call12 = call i32 @_ZN3satcoENS_7literalE(i32 %5)
  %coerce.dive13 = getelementptr inbounds %"class.sat::literal", ptr %agg.tmp9, i32 0, i32 0
  store i32 %call12, ptr %coerce.dive13, align 4
  %coerce.dive14 = getelementptr inbounds %"class.sat::literal", ptr %agg.tmp, i32 0, i32 0
  %6 = load i32, ptr %coerce.dive14, align 4
  %coerce.dive15 = getelementptr inbounds %"class.sat::literal", ptr %agg.tmp8, i32 0, i32 0
  %7 = load i32, ptr %coerce.dive15, align 4
  %coerce.dive16 = getelementptr inbounds %"class.sat::literal", ptr %agg.tmp9, i32 0, i32 0
  %8 = load i32, ptr %coerce.dive16, align 4
  %call17 = call noundef zeroext i1 @_ZNK3sat11npn3_finder11has_ternaryERK9hashtableINS0_7ternaryENS2_4hashENS2_2eqEENS_7literalES8_S8_RPNS_6clauseE(ptr noundef nonnull align 8 dereferenceable(416) %1, ptr noundef nonnull align 8 dereferenceable(20) %3, i32 %6, i32 %7, i32 %8, ptr noundef nonnull align 8 dereferenceable(8) %c1)
  br i1 %call17, label %if.end, label %if.then

if.then:                                          ; preds = %entry
  store i1 false, ptr %retval, align 1
  br label %return

if.end:                                           ; preds = %entry
  %9 = getelementptr inbounds %class.anon.78, ptr %this4, i32 0, i32 1
  %10 = load ptr, ptr %9, align 8
  call void @llvm.memcpy.p0.p0.i64(ptr align 4 %agg.tmp18, ptr align 4 %x, i64 4, i1 false)
  call void @llvm.memcpy.p0.p0.i64(ptr align 4 %agg.tmp20, ptr align 4 %y, i64 4, i1 false)
  %coerce.dive21 = getelementptr inbounds %"class.sat::literal", ptr %agg.tmp20, i32 0, i32 0
  %11 = load i32, ptr %coerce.dive21, align 4
  %call22 = call i32 @_ZN3satcoENS_7literalE(i32 %11)
  %coerce.dive23 = getelementptr inbounds %"class.sat::literal", ptr %agg.tmp19, i32 0, i32 0
  store i32 %call22, ptr %coerce.dive23, align 4
  call void @llvm.memcpy.p0.p0.i64(ptr align 4 %agg.tmp25, ptr align 4 %w, i64 4, i1 false)
  %coerce.dive26 = getelementptr inbounds %"class.sat::literal", ptr %agg.tmp25, i32 0, i32 0
  %12 = load i32, ptr %coerce.dive26, align 4
  %call27 = call i32 @_ZN3satcoENS_7literalE(i32 %12)
  %coerce.dive28 = getelementptr inbounds %"class.sat::literal", ptr %agg.tmp24, i32 0, i32 0
  store i32 %call27, ptr %coerce.dive28, align 4
  %coerce.dive29 = getelementptr inbounds %"class.sat::literal", ptr %agg.tmp18, i32 0, i32 0
  %13 = load i32, ptr %coerce.dive29, align 4
  %coerce.dive30 = getelementptr inbounds %"class.sat::literal", ptr %agg.tmp19, i32 0, i32 0
  %14 = load i32, ptr %coerce.dive30, align 4
  %coerce.dive31 = getelementptr inbounds %"class.sat::literal", ptr %agg.tmp24, i32 0, i32 0
  %15 = load i32, ptr %coerce.dive31, align 4
  %call32 = call noundef zeroext i1 @_ZNK3sat11npn3_finder11has_ternaryERK9hashtableINS0_7ternaryENS2_4hashENS2_2eqEENS_7literalES8_S8_RPNS_6clauseE(ptr noundef nonnull align 8 dereferenceable(416) %1, ptr noundef nonnull align 8 dereferenceable(20) %10, i32 %13, i32 %14, i32 %15, ptr noundef nonnull align 8 dereferenceable(8) %c2)
  br i1 %call32, label %if.end34, label %if.then33

if.then33:                                        ; preds = %if.end
  store i1 false, ptr %retval, align 1
  br label %return

if.end34:                                         ; preds = %if.end
  %16 = getelementptr inbounds %class.anon.78, ptr %this4, i32 0, i32 1
  %17 = load ptr, ptr %16, align 8
  call void @llvm.memcpy.p0.p0.i64(ptr align 4 %agg.tmp35, ptr align 4 %x, i64 4, i1 false)
  call void @llvm.memcpy.p0.p0.i64(ptr align 4 %agg.tmp37, ptr align 4 %z, i64 4, i1 false)
  %coerce.dive38 = getelementptr inbounds %"class.sat::literal", ptr %agg.tmp37, i32 0, i32 0
  %18 = load i32, ptr %coerce.dive38, align 4
  %call39 = call i32 @_ZN3satcoENS_7literalE(i32 %18)
  %coerce.dive40 = getelementptr inbounds %"class.sat::literal", ptr %agg.tmp36, i32 0, i32 0
  store i32 %call39, ptr %coerce.dive40, align 4
  call void @llvm.memcpy.p0.p0.i64(ptr align 4 %agg.tmp42, ptr align 4 %w, i64 4, i1 false)
  %coerce.dive43 = getelementptr inbounds %"class.sat::literal", ptr %agg.tmp42, i32 0, i32 0
  %19 = load i32, ptr %coerce.dive43, align 4
  %call44 = call i32 @_ZN3satcoENS_7literalE(i32 %19)
  %coerce.dive45 = getelementptr inbounds %"class.sat::literal", ptr %agg.tmp41, i32 0, i32 0
  store i32 %call44, ptr %coerce.dive45, align 4
  %coerce.dive46 = getelementptr inbounds %"class.sat::literal", ptr %agg.tmp35, i32 0, i32 0
  %20 = load i32, ptr %coerce.dive46, align 4
  %coerce.dive47 = getelementptr inbounds %"class.sat::literal", ptr %agg.tmp36, i32 0, i32 0
  %21 = load i32, ptr %coerce.dive47, align 4
  %coerce.dive48 = getelementptr inbounds %"class.sat::literal", ptr %agg.tmp41, i32 0, i32 0
  %22 = load i32, ptr %coerce.dive48, align 4
  %call49 = call noundef zeroext i1 @_ZNK3sat11npn3_finder11has_ternaryERK9hashtableINS0_7ternaryENS2_4hashENS2_2eqEENS_7literalES8_S8_RPNS_6clauseE(ptr noundef nonnull align 8 dereferenceable(416) %1, ptr noundef nonnull align 8 dereferenceable(20) %17, i32 %20, i32 %21, i32 %22, ptr noundef nonnull align 8 dereferenceable(8) %c3)
  br i1 %call49, label %if.end51, label %if.then50

if.then50:                                        ; preds = %if.end34
  store i1 false, ptr %retval, align 1
  br label %return

if.end51:                                         ; preds = %if.end34
  %23 = getelementptr inbounds %class.anon.78, ptr %this4, i32 0, i32 1
  %24 = load ptr, ptr %23, align 8
  call void @llvm.memcpy.p0.p0.i64(ptr align 4 %agg.tmp53, ptr align 4 %x, i64 4, i1 false)
  %coerce.dive54 = getelementptr inbounds %"class.sat::literal", ptr %agg.tmp53, i32 0, i32 0
  %25 = load i32, ptr %coerce.dive54, align 4
  %call55 = call i32 @_ZN3satcoENS_7literalE(i32 %25)
  %coerce.dive56 = getelementptr inbounds %"class.sat::literal", ptr %agg.tmp52, i32 0, i32 0
  store i32 %call55, ptr %coerce.dive56, align 4
  call void @llvm.memcpy.p0.p0.i64(ptr align 4 %agg.tmp58, ptr align 4 %z, i64 4, i1 false)
  %coerce.dive59 = getelementptr inbounds %"class.sat::literal", ptr %agg.tmp58, i32 0, i32 0
  %26 = load i32, ptr %coerce.dive59, align 4
  %call60 = call i32 @_ZN3satcoENS_7literalE(i32 %26)
  %coerce.dive61 = getelementptr inbounds %"class.sat::literal", ptr %agg.tmp57, i32 0, i32 0
  store i32 %call60, ptr %coerce.dive61, align 4
  call void @llvm.memcpy.p0.p0.i64(ptr align 4 %agg.tmp62, ptr align 4 %w, i64 4, i1 false)
  %coerce.dive63 = getelementptr inbounds %"class.sat::literal", ptr %agg.tmp52, i32 0, i32 0
  %27 = load i32, ptr %coerce.dive63, align 4
  %coerce.dive64 = getelementptr inbounds %"class.sat::literal", ptr %agg.tmp57, i32 0, i32 0
  %28 = load i32, ptr %coerce.dive64, align 4
  %coerce.dive65 = getelementptr inbounds %"class.sat::literal", ptr %agg.tmp62, i32 0, i32 0
  %29 = load i32, ptr %coerce.dive65, align 4
  %call66 = call noundef zeroext i1 @_ZNK3sat11npn3_finder11has_ternaryERK9hashtableINS0_7ternaryENS2_4hashENS2_2eqEENS_7literalES8_S8_RPNS_6clauseE(ptr noundef nonnull align 8 dereferenceable(416) %1, ptr noundef nonnull align 8 dereferenceable(20) %24, i32 %27, i32 %28, i32 %29, ptr noundef nonnull align 8 dereferenceable(8) %c4)
  br i1 %call66, label %if.end68, label %if.then67

if.then67:                                        ; preds = %if.end51
  store i1 false, ptr %retval, align 1
  br label %return

if.end68:                                         ; preds = %if.end51
  %30 = load ptr, ptr %c.addr, align 8
  call void @_ZN3sat6clause9mark_usedEv(ptr noundef nonnull align 4 dereferenceable(20) %30)
  %31 = load ptr, ptr %c1, align 8
  %tobool = icmp ne ptr %31, null
  br i1 %tobool, label %if.then69, label %if.end70

if.then69:                                        ; preds = %if.end68
  %32 = load ptr, ptr %c1, align 8
  call void @_ZN3sat6clause9mark_usedEv(ptr noundef nonnull align 4 dereferenceable(20) %32)
  br label %if.end70

if.end70:                                         ; preds = %if.then69, %if.end68
  %33 = load ptr, ptr %c2, align 8
  %tobool71 = icmp ne ptr %33, null
  br i1 %tobool71, label %if.then72, label %if.end73

if.then72:                                        ; preds = %if.end70
  %34 = load ptr, ptr %c2, align 8
  call void @_ZN3sat6clause9mark_usedEv(ptr noundef nonnull align 4 dereferenceable(20) %34)
  br label %if.end73

if.end73:                                         ; preds = %if.then72, %if.end70
  %35 = load ptr, ptr %c3, align 8
  %tobool74 = icmp ne ptr %35, null
  br i1 %tobool74, label %if.then75, label %if.end76

if.then75:                                        ; preds = %if.end73
  %36 = load ptr, ptr %c3, align 8
  call void @_ZN3sat6clause9mark_usedEv(ptr noundef nonnull align 4 dereferenceable(20) %36)
  br label %if.end76

if.end76:                                         ; preds = %if.then75, %if.end73
  %37 = load ptr, ptr %c4, align 8
  %tobool77 = icmp ne ptr %37, null
  br i1 %tobool77, label %if.then78, label %if.end79

if.then78:                                        ; preds = %if.end76
  %38 = load ptr, ptr %c4, align 8
  call void @_ZN3sat6clause9mark_usedEv(ptr noundef nonnull align 4 dereferenceable(20) %38)
  br label %if.end79

if.end79:                                         ; preds = %if.then78, %if.end76
  %m_on_dot = getelementptr inbounds %"class.sat::npn3_finder", ptr %1, i32 0, i32 11
  call void @llvm.memcpy.p0.p0.i64(ptr align 4 %agg.tmp80, ptr align 4 %w, i64 4, i1 false)
  call void @llvm.memcpy.p0.p0.i64(ptr align 4 %agg.tmp82, ptr align 4 %x, i64 4, i1 false)
  %coerce.dive83 = getelementptr inbounds %"class.sat::literal", ptr %agg.tmp82, i32 0, i32 0
  %39 = load i32, ptr %coerce.dive83, align 4
  %call84 = call i32 @_ZN3satcoENS_7literalE(i32 %39)
  %coerce.dive85 = getelementptr inbounds %"class.sat::literal", ptr %agg.tmp81, i32 0, i32 0
  store i32 %call84, ptr %coerce.dive85, align 4
  call void @llvm.memcpy.p0.p0.i64(ptr align 4 %agg.tmp86, ptr align 4 %y, i64 4, i1 false)
  call void @llvm.memcpy.p0.p0.i64(ptr align 4 %agg.tmp87, ptr align 4 %z, i64 4, i1 false)
  %coerce.dive88 = getelementptr inbounds %"class.sat::literal", ptr %agg.tmp80, i32 0, i32 0
  %40 = load i32, ptr %coerce.dive88, align 4
  %coerce.dive89 = getelementptr inbounds %"class.sat::literal", ptr %agg.tmp81, i32 0, i32 0
  %41 = load i32, ptr %coerce.dive89, align 4
  %coerce.dive90 = getelementptr inbounds %"class.sat::literal", ptr %agg.tmp86, i32 0, i32 0
  %42 = load i32, ptr %coerce.dive90, align 4
  %coerce.dive91 = getelementptr inbounds %"class.sat::literal", ptr %agg.tmp87, i32 0, i32 0
  %43 = load i32, ptr %coerce.dive91, align 4
  call void @_ZNKSt8functionIFvN3sat7literalES1_S1_S1_EEclES1_S1_S1_S1_(ptr noundef nonnull align 8 dereferenceable(32) %m_on_dot, i32 %40, i32 %41, i32 %42, i32 %43)
  store i1 true, ptr %retval, align 1
  br label %return

return:                                           ; preds = %if.end79, %if.then67, %if.then50, %if.then33, %if.then
  %44 = load i1, ptr %retval, align 1
  ret i1 %44
}