; Function Attrs: mustprogress uwtable
define internal fastcc noundef zeroext i1 @"_ZZN3sat11npn3_finder8find_dotER10ptr_vectorINS_6clauseEEENK3$_0clENS_7literalES6_S6_S6_RS2_"(ptr nocapture noundef nonnull readonly align 8 dereferenceable(16) %this, i32 %w.coerce, i32 %x.coerce, i32 %y.coerce, i32 %z.coerce, ptr nocapture noundef nonnull align 4 dereferenceable(20) %c) unnamed_addr #7 align 2 {
entry:
  %__args.i = alloca %"class.sat::literal", align 4
  %__args10.i = alloca %"class.sat::literal", align 4
  %__args11.i = alloca %"class.sat::literal", align 4
  %__args12.i = alloca %"class.sat::literal", align 4
  %c1 = alloca ptr, align 8
  %c2 = alloca ptr, align 8
  %c3 = alloca ptr, align 8
  %c4 = alloca ptr, align 8
  %0 = load ptr, ptr %this, align 8
  %1 = getelementptr inbounds i8, ptr %this, i64 8
  %2 = load ptr, ptr %1, align 8
  %xor.i = xor i32 %x.coerce, 1
  %xor.i16 = xor i32 %w.coerce, 1
  %call17 = call noundef zeroext i1 @_ZNK3sat11npn3_finder11has_ternaryERK9hashtableINS0_7ternaryENS2_4hashENS2_2eqEENS_7literalES8_S8_RPNS_6clauseE(ptr noundef nonnull align 8 dereferenceable(416) %0, ptr noundef nonnull align 8 dereferenceable(20) %2, i32 %xor.i, i32 %z.coerce, i32 %xor.i16, ptr noundef nonnull align 8 dereferenceable(8) %c1)
  br i1 %call17, label %if.end, label %return

if.end:                                           ; preds = %entry
  %3 = load ptr, ptr %1, align 8
  %xor.i17 = xor i32 %y.coerce, 1
  %call32 = call noundef zeroext i1 @_ZNK3sat11npn3_finder11has_ternaryERK9hashtableINS0_7ternaryENS2_4hashENS2_2eqEENS_7literalES8_S8_RPNS_6clauseE(ptr noundef nonnull align 8 dereferenceable(416) %0, ptr noundef nonnull align 8 dereferenceable(20) %3, i32 %x.coerce, i32 %xor.i17, i32 %xor.i16, ptr noundef nonnull align 8 dereferenceable(8) %c2)
  br i1 %call32, label %if.end34, label %return

if.end34:                                         ; preds = %if.end
  %4 = load ptr, ptr %1, align 8
  %xor.i19 = xor i32 %z.coerce, 1
  %call49 = call noundef zeroext i1 @_ZNK3sat11npn3_finder11has_ternaryERK9hashtableINS0_7ternaryENS2_4hashENS2_2eqEENS_7literalES8_S8_RPNS_6clauseE(ptr noundef nonnull align 8 dereferenceable(416) %0, ptr noundef nonnull align 8 dereferenceable(20) %4, i32 %x.coerce, i32 %xor.i19, i32 %xor.i16, ptr noundef nonnull align 8 dereferenceable(8) %c3)
  br i1 %call49, label %if.end51, label %return

if.end51:                                         ; preds = %if.end34
  %5 = load ptr, ptr %1, align 8
  %call66 = call noundef zeroext i1 @_ZNK3sat11npn3_finder11has_ternaryERK9hashtableINS0_7ternaryENS2_4hashENS2_2eqEENS_7literalES8_S8_RPNS_6clauseE(ptr noundef nonnull align 8 dereferenceable(416) %0, ptr noundef nonnull align 8 dereferenceable(20) %5, i32 %xor.i, i32 %xor.i19, i32 %w.coerce, ptr noundef nonnull align 8 dereferenceable(8) %c4)
  br i1 %call66, label %if.end68, label %return

if.end68:                                         ; preds = %if.end51
  %m_used.i = getelementptr inbounds i8, ptr %c, i64 16
  %bf.load.i = load i32, ptr %m_used.i, align 4
  %bf.set.i = or i32 %bf.load.i, 8
  store i32 %bf.set.i, ptr %m_used.i, align 4
  %6 = load ptr, ptr %c1, align 8
  %tobool.not = icmp eq ptr %6, null
  br i1 %tobool.not, label %if.end70, label %if.then69

if.then69:                                        ; preds = %if.end68
  %m_used.i23 = getelementptr inbounds i8, ptr %6, i64 16
  %bf.load.i24 = load i32, ptr %m_used.i23, align 4
  %bf.set.i25 = or i32 %bf.load.i24, 8
  store i32 %bf.set.i25, ptr %m_used.i23, align 4
  br label %if.end70

if.end70:                                         ; preds = %if.then69, %if.end68
  %7 = load ptr, ptr %c2, align 8
  %tobool71.not = icmp eq ptr %7, null
  br i1 %tobool71.not, label %if.end73, label %if.then72

if.then72:                                        ; preds = %if.end70
  %m_used.i26 = getelementptr inbounds i8, ptr %7, i64 16
  %bf.load.i27 = load i32, ptr %m_used.i26, align 4
  %bf.set.i28 = or i32 %bf.load.i27, 8
  store i32 %bf.set.i28, ptr %m_used.i26, align 4
  br label %if.end73

if.end73:                                         ; preds = %if.then72, %if.end70
  %8 = load ptr, ptr %c3, align 8
  %tobool74.not = icmp eq ptr %8, null
  br i1 %tobool74.not, label %if.end76, label %if.then75

if.then75:                                        ; preds = %if.end73
  %m_used.i29 = getelementptr inbounds i8, ptr %8, i64 16
  %bf.load.i30 = load i32, ptr %m_used.i29, align 4
  %bf.set.i31 = or i32 %bf.load.i30, 8
  store i32 %bf.set.i31, ptr %m_used.i29, align 4
  br label %if.end76

if.end76:                                         ; preds = %if.then75, %if.end73
  %9 = load ptr, ptr %c4, align 8
  %tobool77.not = icmp eq ptr %9, null
  br i1 %tobool77.not, label %if.end79, label %if.then78

if.then78:                                        ; preds = %if.end76
  %m_used.i32 = getelementptr inbounds i8, ptr %9, i64 16
  %bf.load.i33 = load i32, ptr %m_used.i32, align 4
  %bf.set.i34 = or i32 %bf.load.i33, 8
  store i32 %bf.set.i34, ptr %m_used.i32, align 4
  br label %if.end79

if.end79:                                         ; preds = %if.then78, %if.end76
  call void @llvm.lifetime.start.p0(i64 4, ptr nonnull %__args.i)
  call void @llvm.lifetime.start.p0(i64 4, ptr nonnull %__args10.i)
  call void @llvm.lifetime.start.p0(i64 4, ptr nonnull %__args11.i)
  call void @llvm.lifetime.start.p0(i64 4, ptr nonnull %__args12.i)
  store i32 %w.coerce, ptr %__args.i, align 4
  store i32 %xor.i, ptr %__args10.i, align 4
  store i32 %y.coerce, ptr %__args11.i, align 4
  store i32 %z.coerce, ptr %__args12.i, align 4
  %_M_manager.i.i = getelementptr inbounds i8, ptr %0, i64 392
  %10 = load ptr, ptr %_M_manager.i.i, align 8
  %tobool.not.i.i = icmp eq ptr %10, null
  br i1 %tobool.not.i.i, label %if.then.i, label %_ZNKSt8functionIFvN3sat7literalES1_S1_S1_EEclES1_S1_S1_S1_.exit

if.then.i:                                        ; preds = %if.end79
  tail call void @_ZSt25__throw_bad_function_callv() #22
  unreachable

_ZNKSt8functionIFvN3sat7literalES1_S1_S1_EEclES1_S1_S1_S1_.exit: ; preds = %if.end79
  %m_on_dot = getelementptr inbounds i8, ptr %0, i64 376
  %_M_invoker.i = getelementptr inbounds i8, ptr %0, i64 400
  %11 = load ptr, ptr %_M_invoker.i, align 8
  call void %11(ptr noundef nonnull align 8 dereferenceable(16) %m_on_dot, ptr noundef nonnull align 4 dereferenceable(4) %__args.i, ptr noundef nonnull align 4 dereferenceable(4) %__args10.i, ptr noundef nonnull align 4 dereferenceable(4) %__args11.i, ptr noundef nonnull align 4 dereferenceable(4) %__args12.i)
  call void @llvm.lifetime.end.p0(i64 4, ptr nonnull %__args.i)
  call void @llvm.lifetime.end.p0(i64 4, ptr nonnull %__args10.i)
  call void @llvm.lifetime.end.p0(i64 4, ptr nonnull %__args11.i)
  call void @llvm.lifetime.end.p0(i64 4, ptr nonnull %__args12.i)
  br label %return

return:                                           ; preds = %if.end51, %if.end34, %if.end, %entry, %_ZNKSt8functionIFvN3sat7literalES1_S1_S1_EEclES1_S1_S1_S1_.exit
  %retval.0 = phi i1 [ true, %_ZNKSt8functionIFvN3sat7literalES1_S1_S1_EEclES1_S1_S1_S1_.exit ], [ false, %entry ], [ false, %if.end ], [ false, %if.end34 ], [ false, %if.end51 ]
  ret i1 %retval.0
}